#include <math.h>
#include <stdio.h>
#include <stdlib.h>
#include <string.h>



int main(int argc, char* argv[])
{
	int i=1;
    int s=0;
    int n;
    scanf("%d",&n);
    while (i<=n) {
         if (((i%7))&&(!(i%10==7))&&(!(i/10==7))) {
		//if ((i%7)||(i%10-7)||(i/10-7)) {
                                         s=s+i*i;
										// printf("%d\n",i);
                                         }
                                         i++;
                                         }

    printf("%d",s);
	return 0;
}