; ModuleID = '30/3221.c'
source_filename = "30/3221.c"
target datalayout = "e-m:e-p270:32:32-p271:32:32-p272:64:64-i64:64-f80:128-n8:16:32:64-S128"
target triple = "x86_64-pc-linux-gnu"

@.str = private unnamed_addr constant [3 x i8] c"%d\00", align 1

; Function Attrs: noinline nounwind uwtable
define dso_local i32 @main(i32 %0, i8** %1) #0 {
  %3 = alloca i32, align 4
  %4 = alloca i32, align 4
  %5 = alloca i8**, align 8
  %6 = alloca i32, align 4
  %7 = alloca i32, align 4
  %8 = alloca i32, align 4
  store i32 0, i32* %3, align 4
  store i32 %0, i32* %4, align 4
  store i8** %1, i8*** %5, align 8
  store i32 1, i32* %6, align 4
  store i32 0, i32* %7, align 4
  %9 = call i32 (i8*, ...) @__isoc99_scanf(i8* getelementptr inbounds ([3 x i8], [3 x i8]* @.str, i64 0, i64 0), i32* %8)
  br label %10

10:                                               ; preds = %32, %2
  %11 = load i32, i32* %6, align 4
  %12 = load i32, i32* %8, align 4
  %13 = icmp sle i32 %11, %12
  br i1 %13, label %14, label %35

14:                                               ; preds = %10
  %15 = load i32, i32* %6, align 4
  %16 = srem i32 %15, 7
  %17 = icmp ne i32 %16, 0
  br i1 %17, label %18, label %32

18:                                               ; preds = %14
  %19 = load i32, i32* %6, align 4
  %20 = srem i32 %19, 10
  %21 = icmp eq i32 %20, 7
  br i1 %21, label %32, label %22

22:                                               ; preds = %18
  %23 = load i32, i32* %6, align 4
  %24 = sdiv i32 %23, 10
  %25 = icmp eq i32 %24, 7
  br i1 %25, label %32, label %26

26:                                               ; preds = %22
  %27 = load i32, i32* %7, align 4
  %28 = load i32, i32* %6, align 4
  %29 = load i32, i32* %6, align 4
  %30 = mul nsw i32 %28, %29
  %31 = add nsw i32 %27, %30
  store i32 %31, i32* %7, align 4
  br label %32

32:                                               ; preds = %26, %22, %18, %14
  %33 = load i32, i32* %6, align 4
  %34 = add nsw i32 %33, 1
  store i32 %34, i32* %6, align 4
  br label %10

35:                                               ; preds = %10
  %36 = load i32, i32* %7, align 4
  %37 = call i32 (i8*, ...) @printf(i8* getelementptr inbounds ([3 x i8], [3 x i8]* @.str, i64 0, i64 0), i32 %36)
  ret i32 0
}

declare dso_local i32 @__isoc99_scanf(i8*, ...) #1

declare dso_local i32 @printf(i8*, ...) #1


!llvm.module.flags = !{!0}
!llvm.ident = !{!1}

!0 = !{i32 1, !"wchar_size", i32 4}
!1 = !{!"clang version 10.0.0-4ubuntu1 "}
